; Function Attrs: mustprogress nofree norecurse nosync nounwind willreturn memory(read, inaccessiblemem: none) uwtable
define noundef i32 @_ZNK6icu_7513TimeZoneNames19MatchInfoCollection4sizeEv(ptr nocapture noundef nonnull readonly align 8 dereferenceable(16) %this) local_unnamed_addr #14 align 2 {
entry:
  %fMatches = getelementptr inbounds i8, ptr %this, i64 8
  %0 = load ptr, ptr %fMatches, align 8
  %cmp = icmp eq ptr %0, null
  br i1 %cmp, label %return, label %if.end

if.end:                                           ; preds = %entry
  %count.i = getelementptr inbounds i8, ptr %0, i64 8
  %1 = load i32, ptr %count.i, align 8
  br label %return

return:                                           ; preds = %entry, %if.end
  %retval.0 = phi i32 [ %1, %if.end ], [ 0, %entry ]
  ret i32 %retval.0
}